#include <math.h>
#include <stdio.h>
#include <stdlib.h>
#include <string.h>

void main()
{
	char s[50];char w[50];
	scanf("%s",s);
	scanf("%s",w);
	int lens;int j,i,t;
	lens=strlen(s);
	for(j=0;s[0]!=w[j]&&j<lens;j++);
    for(i=0,t=j;s[i]==w[t]&&i<lens&&t<50;i++,t++);
	if(i==lens)printf("%d\n",j);
}
