; ModuleID = 'source-C-CXX/44/198.c'
source_filename = "source-C-CXX/44/198.c"
target datalayout = "e-m:e-p270:32:32-p271:32:32-p272:64:64-i64:64-f80:128-n8:16:32:64-S128"
target triple = "x86_64-pc-linux-gnu"

@.str = private unnamed_addr constant [3 x i8] c"%s\00", align 1
@.str.1 = private unnamed_addr constant [4 x i8] c"%d\0A\00", align 1

; Function Attrs: nofree nounwind sspstrong uwtable
define dso_local void @main() local_unnamed_addr #0 {
  %1 = alloca [50 x i8], align 16
  %2 = alloca [50 x i8], align 16
  %3 = getelementptr inbounds [50 x i8], [50 x i8]* %1, i64 0, i64 0
  call void @llvm.lifetime.start.p0i8(i64 50, i8* nonnull %3) #4
  %4 = getelementptr inbounds [50 x i8], [50 x i8]* %2, i64 0, i64 0
  call void @llvm.lifetime.start.p0i8(i64 50, i8* nonnull %4) #4
  %5 = call i32 (i8*, ...) @__isoc99_scanf(i8* getelementptr inbounds ([3 x i8], [3 x i8]* @.str, i64 0, i64 0), i8* nonnull %3)
  %6 = call i32 (i8*, ...) @__isoc99_scanf(i8* getelementptr inbounds ([3 x i8], [3 x i8]* @.str, i64 0, i64 0), i8* nonnull %4)
  %7 = call i64 @strlen(i8* noundef nonnull %3) #5
  %8 = trunc i64 %7 to i32
  %9 = load i8, i8* %3, align 16, !tbaa !5
  %10 = shl i64 %7, 32
  %11 = ashr exact i64 %10, 32
  br label %12

12:                                               ; preds = %12, %0
  %13 = phi i64 [ %19, %12 ], [ 0, %0 ]
  %14 = getelementptr inbounds [50 x i8], [50 x i8]* %2, i64 0, i64 %13
  %15 = load i8, i8* %14, align 1, !tbaa !5
  %16 = icmp ne i8 %9, %15
  %17 = icmp slt i64 %13, %11
  %18 = select i1 %16, i1 %17, i1 false
  %19 = add nuw nsw i64 %13, 1
  br i1 %18, label %12, label %20, !llvm.loop !8

20:                                               ; preds = %12
  %21 = trunc i64 %13 to i32
  %22 = and i64 %13, 4294967295
  %23 = getelementptr inbounds [50 x i8], [50 x i8]* %2, i64 0, i64 %22
  %24 = load i8, i8* %23, align 1, !tbaa !5
  %25 = icmp eq i8 %9, %24
  br i1 %25, label %26, label %44

26:                                               ; preds = %20, %33
  %27 = phi i64 [ %34, %33 ], [ 0, %20 ]
  %28 = phi i64 [ %36, %33 ], [ %13, %20 ]
  %29 = phi i32 [ %35, %33 ], [ 0, %20 ]
  %30 = icmp slt i64 %27, %11
  %31 = icmp ult i64 %28, 50
  %32 = select i1 %30, i1 %31, i1 false
  br i1 %32, label %33, label %42

33:                                               ; preds = %26
  %34 = add nuw nsw i64 %27, 1
  %35 = add nuw nsw i32 %29, 1
  %36 = add nuw nsw i64 %28, 1
  %37 = getelementptr inbounds [50 x i8], [50 x i8]* %1, i64 0, i64 %34
  %38 = load i8, i8* %37, align 1, !tbaa !5
  %39 = getelementptr inbounds [50 x i8], [50 x i8]* %2, i64 0, i64 %36
  %40 = load i8, i8* %39, align 1, !tbaa !5
  %41 = icmp eq i8 %38, %40
  br i1 %41, label %26, label %44, !llvm.loop !10

42:                                               ; preds = %26
  %43 = trunc i64 %27 to i32
  br label %44

44:                                               ; preds = %33, %42, %20
  %45 = phi i32 [ 0, %20 ], [ %43, %42 ], [ %35, %33 ]
  %46 = icmp eq i32 %45, %8
  br i1 %46, label %47, label %49

47:                                               ; preds = %44
  %48 = call i32 (i8*, ...) @printf(i8* nonnull dereferenceable(1) getelementptr inbounds ([4 x i8], [4 x i8]* @.str.1, i64 0, i64 0), i32 %21)
  br label %49

49:                                               ; preds = %47, %44
  call void @llvm.lifetime.end.p0i8(i64 50, i8* nonnull %4) #4
  call void @llvm.lifetime.end.p0i8(i64 50, i8* nonnull %3) #4
  ret void
}

; Function Attrs: argmemonly mustprogress nofree nosync nounwind willreturn
declare void @llvm.lifetime.start.p0i8(i64 immarg, i8* nocapture) #1

; Function Attrs: nofree nounwind
declare noundef i32 @__isoc99_scanf(i8* nocapture noundef readonly, ...) local_unnamed_addr #2

; Function Attrs: argmemonly mustprogress nofree nounwind readonly willreturn
declare i64 @strlen(i8* nocapture) local_unnamed_addr #3

; Function Attrs: nofree nounwind
declare noundef i32 @printf(i8* nocapture noundef readonly, ...) local_unnamed_addr #2

; Function Attrs: argmemonly mustprogress nofree nosync nounwind willreturn
declare void @llvm.lifetime.end.p0i8(i64 immarg, i8* nocapture) #1


!llvm.module.flags = !{!0, !1, !2, !3}
!llvm.ident = !{!4}

!0 = !{i32 1, !"wchar_size", i32 4}
!1 = !{i32 7, !"PIC Level", i32 2}
!2 = !{i32 7, !"PIE Level", i32 2}
!3 = !{i32 7, !"uwtable", i32 1}
!4 = !{!"clang version 13.0.0"}
!5 = !{!6, !6, i64 0}
!6 = !{!"omnipotent char", !7, i64 0}
!7 = !{!"Simple C/C++ TBAA"}
!8 = distinct !{!8, !9}
!9 = !{!"llvm.loop.mustprogress"}
!10 = distinct !{!10, !9}
